; Function Attrs: mustprogress uwtable
define hidden void @_ZN4cvc58internal6theory4sets9RelsUtils25evaluateRelationAggregateENS0_12NodeTemplateILb0EEE(ptr dead_on_unwind noalias writable sret(%"class.cvc5::internal::NodeTemplate") align 8 %0, ptr noundef readonly captures(none) %1) local_unnamed_addr #3 align 2 personality ptr @__gxx_personality_v0 {
  %3 = alloca %"class.cvc5::internal::NodeTemplate.41", align 8
  %4 = alloca %"class.cvc5::internal::NodeTemplate.41", align 8
  %5 = alloca %"class.cvc5::internal::NodeTemplate", align 8
  call void @llvm.lifetime.start.p0(i64 8, ptr nonnull %3) #20
  tail call void @llvm.experimental.noalias.scope.decl(metadata !104)
  %6 = load ptr, ptr %1, align 8, !tbaa !43, !noalias !104
  %7 = getelementptr inbounds nuw i8, ptr %6, i64 8
  %8 = load i64, ptr %7, align 8, !noalias !104
  %9 = trunc i64 %8 to i32
  %10 = and i32 %9, 1023
  %11 = icmp eq i32 %10, 1023
  %12 = select i1 %11, i32 -1, i32 %10
  %13 = tail call noundef i32 @_ZN4cvc58internal4kind10metaKindOfENS1_6Kind_tE(i32 noundef %12), !noalias !104
  %14 = icmp eq i32 %13, 2
  %spec.select.i.i = select i1 %14, i64 2, i64 1
  %15 = getelementptr inbounds nuw i8, ptr %6, i64 24
  %16 = getelementptr inbounds nuw [0 x ptr], ptr %15, i64 0, i64 %spec.select.i.i
  %17 = load ptr, ptr %16, align 8, !tbaa !35, !noalias !104
  store ptr %17, ptr %3, align 8, !tbaa !43, !alias.scope !104
  %18 = invoke noundef zeroext i1 @_ZNK4cvc58internal12NodeTemplateILb0EE7isConstEv(ptr noundef nonnull align 8 dereferenceable(8) %3)
          to label %19 unwind label %51

19:                                               ; preds = %2
  br i1 %18, label %20, label %.critedge.thread

.critedge.thread:                                 ; preds = %19
  call void @llvm.lifetime.end.p0(i64 8, ptr nonnull %3) #20
  br label %35

20:                                               ; preds = %19
  call void @llvm.lifetime.start.p0(i64 8, ptr nonnull %4) #20
  call void @llvm.experimental.noalias.scope.decl(metadata !107)
  %21 = load ptr, ptr %1, align 8, !tbaa !43, !noalias !107
  %22 = getelementptr inbounds nuw i8, ptr %21, i64 8
  %23 = load i64, ptr %22, align 8, !noalias !107
  %24 = trunc i64 %23 to i32
  %25 = and i32 %24, 1023
  %26 = icmp eq i32 %25, 1023
  %27 = select i1 %26, i32 -1, i32 %25
  %28 = invoke noundef i32 @_ZN4cvc58internal4kind10metaKindOfENS1_6Kind_tE(i32 noundef %27)
          to label %29 unwind label %53

29:                                               ; preds = %20
  %30 = icmp eq i32 %28, 2
  %spec.select.i.i15 = select i1 %30, i64 3, i64 2
  %31 = getelementptr inbounds nuw i8, ptr %21, i64 24
  %32 = getelementptr inbounds nuw [0 x ptr], ptr %31, i64 0, i64 %spec.select.i.i15
  %33 = load ptr, ptr %32, align 8, !tbaa !35, !noalias !107
  store ptr %33, ptr %4, align 8, !tbaa !43, !alias.scope !107
  %34 = invoke noundef zeroext i1 @_ZNK4cvc58internal12NodeTemplateILb0EE7isConstEv(ptr noundef nonnull align 8 dereferenceable(8) %4)
          to label %.critedge unwind label %55

.critedge:                                        ; preds = %29
  call void @llvm.lifetime.end.p0(i64 8, ptr nonnull %4) #20
  call void @llvm.lifetime.end.p0(i64 8, ptr nonnull %3) #20
  br i1 %34, label %59, label %35

35:                                               ; preds = %.critedge.thread, %.critedge
  %36 = load ptr, ptr %1, align 8, !tbaa !43
  store ptr %36, ptr %0, align 8, !tbaa !16
  %37 = load i64, ptr %36, align 8
  %38 = lshr i64 %37, 40
  %39 = trunc nuw nsw i64 %38 to i32
  %40 = and i32 %39, 1048575
  %41 = icmp samesign ult i32 %40, 1048574
  br i1 %41, label %42, label %47, !prof !19

42:                                               ; preds = %35
  %43 = add i64 %37, 1099511627776
  %44 = and i64 %43, 1152920405095219200
  %45 = and i64 %37, -1152920405095219201
  %46 = or disjoint i64 %44, %45
  store i64 %46, ptr %36, align 8
  br label %_ZN4cvc58internal12NodeTemplateILb1EEC2ERKNS1_ILb0EEE.exit

47:                                               ; preds = %35
  %48 = icmp eq i32 %40, 1048574
  br i1 %48, label %49, label %_ZN4cvc58internal12NodeTemplateILb1EEC2ERKNS1_ILb0EEE.exit, !prof !20

49:                                               ; preds = %47
  %50 = or i64 %37, 1152920405095219200
  store i64 %50, ptr %36, align 8
  call void @_ZN4cvc58internal4expr9NodeValue20markRefCountMaxedOutEv(ptr noundef nonnull align 8 dereferenceable(24) %36)
  br label %_ZN4cvc58internal12NodeTemplateILb1EEC2ERKNS1_ILb0EEE.exit

51:                                               ; preds = %2
  %52 = landingpad { ptr, i32 }
          cleanup
  br label %58

53:                                               ; preds = %20
  %54 = landingpad { ptr, i32 }
          cleanup
  br label %57

55:                                               ; preds = %29
  %56 = landingpad { ptr, i32 }
          cleanup
  br label %57

57:                                               ; preds = %53, %55
  %.pn = phi { ptr, i32 } [ %56, %55 ], [ %54, %53 ]
  call void @llvm.lifetime.end.p0(i64 8, ptr nonnull %4) #20
  br label %58

58:                                               ; preds = %57, %51
  %.pn.pn = phi { ptr, i32 } [ %.pn, %57 ], [ %52, %51 ]
  call void @llvm.lifetime.end.p0(i64 8, ptr nonnull %3) #20
  br label %91

59:                                               ; preds = %.critedge
  %60 = load ptr, ptr %1, align 8, !tbaa !43
  store ptr %60, ptr %5, align 8, !tbaa !16
  %61 = load i64, ptr %60, align 8
  %62 = lshr i64 %61, 40
  %63 = trunc nuw nsw i64 %62 to i32
  %64 = and i32 %63, 1048575
  %65 = icmp samesign ult i32 %64, 1048574
  br i1 %65, label %66, label %71, !prof !19

66:                                               ; preds = %59
  %67 = add i64 %61, 1099511627776
  %68 = and i64 %67, 1152920405095219200
  %69 = and i64 %61, -1152920405095219201
  %70 = or disjoint i64 %68, %69
  store i64 %70, ptr %60, align 8
  br label %_ZN4cvc58internal12NodeTemplateILb1EEC2ERKNS1_ILb0EEE.exit16

71:                                               ; preds = %59
  %72 = icmp eq i32 %64, 1048574
  br i1 %72, label %73, label %_ZN4cvc58internal12NodeTemplateILb1EEC2ERKNS1_ILb0EEE.exit16, !prof !20

73:                                               ; preds = %71
  %74 = or i64 %61, 1152920405095219200
  store i64 %74, ptr %60, align 8
  call void @_ZN4cvc58internal4expr9NodeValue20markRefCountMaxedOutEv(ptr noundef nonnull align 8 dereferenceable(24) %60)
  br label %_ZN4cvc58internal12NodeTemplateILb1EEC2ERKNS1_ILb0EEE.exit16

_ZN4cvc58internal12NodeTemplateILb1EEC2ERKNS1_ILb0EEE.exit16: ; preds = %66, %71, %73
  invoke void @_ZN4cvc58internal6theory4sets12SetReduction23reduceAggregateOperatorENS0_12NodeTemplateILb1EEE(ptr dead_on_unwind writable sret(%"class.cvc5::internal::NodeTemplate") align 8 %0, ptr noundef nonnull %5)
          to label %75 unwind label %89

75:                                               ; preds = %_ZN4cvc58internal12NodeTemplateILb1EEC2ERKNS1_ILb0EEE.exit16
  %76 = load ptr, ptr %5, align 8, !tbaa !16
  %77 = load i64, ptr %76, align 8
  %78 = and i64 %77, 1152920405095219200
  %.not.i.i = icmp eq i64 %78, 1152920405095219200
  br i1 %.not.i.i, label %_ZN4cvc58internal12NodeTemplateILb1EEC2ERKNS1_ILb0EEE.exit, label %79, !prof !20

79:                                               ; preds = %75
  %80 = add i64 %77, 1152920405095219200
  %81 = and i64 %80, 1152920405095219200
  %82 = and i64 %77, -1152920405095219201
  %83 = or disjoint i64 %81, %82
  store i64 %83, ptr %76, align 8
  %84 = icmp eq i64 %81, 0
  br i1 %84, label %85, label %_ZN4cvc58internal12NodeTemplateILb1EEC2ERKNS1_ILb0EEE.exit, !prof !20

85:                                               ; preds = %79
  invoke void @_ZN4cvc58internal4expr9NodeValue15markForDeletionEv(ptr noundef nonnull align 8 dereferenceable(24) %76)
          to label %_ZN4cvc58internal12NodeTemplateILb1EEC2ERKNS1_ILb0EEE.exit unwind label %86

86:                                               ; preds = %85
  %87 = landingpad { ptr, i32 }
          catch ptr null
  %88 = extractvalue { ptr, i32 } %87, 0
  call void @__clang_call_terminate(ptr %88) #21
  unreachable

89:                                               ; preds = %_ZN4cvc58internal12NodeTemplateILb1EEC2ERKNS1_ILb0EEE.exit16
  %90 = landingpad { ptr, i32 }
          cleanup
  call void @_ZN4cvc58internal12NodeTemplateILb1EED2Ev(ptr noundef nonnull align 8 dereferenceable(8) %5) #20
  br label %91

_ZN4cvc58internal12NodeTemplateILb1EEC2ERKNS1_ILb0EEE.exit: ; preds = %85, %79, %75, %49, %47, %42
  ret void

91:                                               ; preds = %89, %58
  %.pn13 = phi { ptr, i32 } [ %90, %89 ], [ %.pn.pn, %58 ]
  resume { ptr, i32 } %.pn13
}